target datalayout = "e-m:e-p270:32:32-p271:32:32-p272:64:64-i64:64-i128:128-f80:128-n8:16:32:64-S128"
target triple = "x86_64-pc-linux-gnu"

%struct.Curl_cftype = type { ptr, i32, i32, ptr, ptr, ptr, ptr, ptr, ptr, ptr, ptr, ptr, ptr, ptr, ptr, ptr }
%struct.Curl_cfilter = type { ptr, ptr, ptr, ptr, i32, i8 }
%struct.cf_call_data = type { ptr }
%struct.cf_h2_proxy_ctx = type { ptr, %struct.cf_call_data, %struct.bufq, %struct.bufq, %struct.tunnel_stream, i32, i32, i8 }
%struct.bufq = type { ptr, ptr, ptr, ptr, i64, i64, i64, i32 }
%struct.tunnel_stream = type { ptr, %struct.bufq, %struct.bufq, ptr, i32, i32, i32, i8 }
%struct.Curl_easy = type { i32, i64, i64, ptr, %struct.Curl_llist_node, %struct.Curl_llist_node, i32, i32, %struct.Curl_message, %struct.easy_pollset, %struct.Names, ptr, ptr, ptr, %struct.SingleRequest, %struct.UserDefined, ptr, ptr, %struct.Progress, %struct.UrlState, ptr, %struct.PureInfo, %struct.curl_tlssessioninfo }
%struct.Curl_llist_node = type { ptr, ptr, ptr, ptr }
%struct.Curl_message = type { %struct.Curl_llist_node, %struct.CURLMsg }
%struct.CURLMsg = type { i32, ptr, %union.anon }
%union.anon = type { ptr }
%struct.easy_pollset = type { [5 x i32], i32, [5 x i8] }
%struct.Names = type { ptr, i32 }
%struct.SingleRequest = type <{ i64, i64, i64, i64, %struct.curltime, i32, i32, i32, i32, i64, i32, i32, i32, i32, ptr, ptr, %struct.bufq, i64, i64, ptr, ptr, %union.anon.0, ptr, i8, i32, [3 x i8] }>
%struct.curltime = type { i64, i32 }
%union.anon.0 = type { ptr }
%struct.UserDefined = type <{ ptr, ptr, ptr, ptr, ptr, ptr, i16, [6 x i8], i64, i64, i64, ptr, ptr, i64, i16, i16, [4 x i8], ptr, ptr, ptr, ptr, ptr, ptr, ptr, ptr, ptr, ptr, ptr, ptr, ptr, ptr, ptr, ptr, ptr, ptr, ptr, ptr, ptr, ptr, ptr, i32, i32, i32, i32, i32, [4 x i8], i64, i64, i64, i64, i64, i64, i64, i64, ptr, ptr, %struct.curl_mimepart, ptr, ptr, i64, i8, i8, i8, [5 x i8], %struct.ssl_config_data, %struct.ssl_config_data, ptr, i16, i8, i8, [4 x i8], %struct.ssl_general_config, i32, i32, i32, [4 x i8], ptr, ptr, i8, [7 x i8], i64, i8, i8, i8, i8, i32, ptr, ptr, ptr, i8, i8, [2 x i8], i32, [63 x ptr], [8 x ptr], i32, i32, i32, [4 x i8], ptr, ptr, ptr, ptr, ptr, i8, [3 x i8], i32, i32, i32, i64, %struct.Curl_data_priority, ptr, ptr, i64, ptr, i64, ptr, ptr, ptr, i8, [3 x i8], i32, i8, i8, i64, [6 x i8] }>
%struct.curl_mimepart = type { ptr, ptr, i32, i32, ptr, ptr, ptr, ptr, ptr, ptr, ptr, ptr, ptr, ptr, ptr, i64, %struct.mime_state, ptr, %struct.mime_encoder_state, i64 }
%struct.mime_state = type { i32, ptr, i64 }
%struct.mime_encoder_state = type { i64, i64, i64, [256 x i8] }
%struct.ssl_config_data = type { %struct.ssl_primary_config, i64, ptr, ptr, ptr, ptr, ptr, ptr, ptr, i16 }
%struct.ssl_primary_config = type { ptr, ptr, ptr, ptr, ptr, ptr, ptr, ptr, ptr, ptr, ptr, ptr, i8, i32, i8, i8 }
%struct.ssl_general_config = type { i64, i32 }
%struct.Curl_data_priority = type { ptr, ptr, i32, i8 }
%struct.Progress = type { i64, %struct.pgrs_dir, %struct.pgrs_dir, i64, i64, i32, i32, i64, i64, i64, i64, i64, i64, i64, i64, i64, %struct.curltime, %struct.curltime, %struct.curltime, %struct.curltime, [6 x i64], [6 x %struct.curltime], i32, i8 }
%struct.pgrs_dir = type { i64, i64, i64, %struct.pgrs_measure }
%struct.pgrs_measure = type { %struct.curltime, i64 }
%struct.UrlState = type { %struct.curltime, i64, i64, %struct.dynbuf, ptr, i64, ptr, i32, i32, i32, ptr, i64, i32, i64, i32, ptr, %struct.digestdata, %struct.digestdata, %struct.auth, %struct.auth, %struct.Curl_async, ptr, %struct.curltime, %struct.Curl_tree, %struct.Curl_llist, [15 x %struct.time_node], ptr, ptr, i64, i64, %struct.Curl_data_priority, ptr, ptr, ptr, %struct.urlpieces, ptr, ptr, ptr, ptr, ptr, i64, %struct.dynbuf, %struct.Curl_llist, [2 x %struct.curl_header], ptr, i32, ptr, ptr, %struct.store_netrc, %struct.dynamically_allocated_data, i8, i8, i8, i8, i32 }
%struct.digestdata = type { ptr, ptr, ptr, ptr, ptr, ptr, i32, i8, i8 }
%struct.auth = type { i64, i64, i64, i8 }
%struct.Curl_async = type { ptr, ptr, ptr, ptr, i32, i32, i8 }
%struct.Curl_tree = type { ptr, ptr, ptr, ptr, %struct.curltime, ptr }
%struct.time_node = type { %struct.Curl_llist_node, %struct.curltime, i32 }
%struct.urlpieces = type { ptr, ptr, ptr, ptr, ptr, ptr, ptr, ptr }
%struct.dynbuf = type { ptr, i64, i64, i64 }
%struct.Curl_llist = type { ptr, ptr, ptr, i64 }
%struct.curl_header = type { ptr, ptr, i64, i64, i32, ptr }
%struct.store_netrc = type { %struct.dynbuf, ptr, i8 }
%struct.dynamically_allocated_data = type { ptr, ptr, ptr, ptr, ptr, ptr, ptr, ptr, ptr, ptr, ptr, ptr, ptr }
%struct.PureInfo = type { i32, i32, i32, i64, i64, i64, i64, i64, ptr, ptr, i64, i32, %struct.ip_quadruple, i32, ptr, i32, %struct.curl_certinfo, i32, i8 }
%struct.ip_quadruple = type { [46 x i8], [46 x i8], i32, i32 }
%struct.curl_certinfo = type { i32, ptr }
%struct.curl_tlssessioninfo = type { i32, ptr }
%struct.curl_trc_feat = type { ptr, i32 }

@.str.46 = private unnamed_addr constant [43 x i8] c"[0] process %zu bytes in connection buffer\00", align 1
@.str.47 = private unnamed_addr constant [38 x i8] c"[0] read %zu bytes nw data -> %zd, %d\00", align 1
@.str.48 = private unnamed_addr constant [28 x i8] c"Failed receiving HTTP2 data\00", align 1

; Function Attrs: nounwind uwtable
define internal i32 @proxy_h2_progress_ingress(ptr noundef %0, ptr noundef %1) #0 {
  %3 = alloca i32, align 4
  %4 = alloca ptr, align 8
  %5 = alloca ptr, align 8
  %6 = alloca ptr, align 8
  %7 = alloca i32, align 4
  %8 = alloca i64, align 8
  %9 = alloca i32, align 4
  store ptr %0, ptr %4, align 8, !tbaa !4
  store ptr %1, ptr %5, align 8, !tbaa !9
  call void @llvm.lifetime.start.p0(i64 8, ptr %6) #6
  %10 = load ptr, ptr %4, align 8, !tbaa !4
  %11 = getelementptr inbounds nuw %struct.Curl_cfilter, ptr %10, i32 0, i32 2
  %12 = load ptr, ptr %11, align 8, !tbaa !11
  store ptr %12, ptr %6, align 8, !tbaa !16
  call void @llvm.lifetime.start.p0(i64 4, ptr %7) #6
  store i32 0, ptr %7, align 4, !tbaa !22
  call void @llvm.lifetime.start.p0(i64 8, ptr %8) #6
  %13 = load ptr, ptr %6, align 8, !tbaa !16
  %14 = getelementptr inbounds nuw %struct.cf_h2_proxy_ctx, ptr %13, i32 0, i32 2
  %15 = call zeroext i1 @Curl_bufq_is_empty(ptr noundef %14)
  br i1 %15, label %69, label %16

16:                                               ; preds = %2
  br label %17

17:                                               ; preds = %16
  %18 = load ptr, ptr %5, align 8, !tbaa !9
  %19 = icmp ne ptr %18, null
  br i1 %19, label %20, label %59

20:                                               ; preds = %17
  %21 = load ptr, ptr %5, align 8, !tbaa !9
  %22 = getelementptr inbounds nuw %struct.Curl_easy, ptr %21, i32 0, i32 15
  %23 = getelementptr inbounds nuw %struct.UserDefined, ptr %22, i32 0, i32 124
  %24 = load i64, ptr %23, align 2
  %25 = lshr i64 %24, 27
  %26 = and i64 %25, 1
  %27 = trunc i64 %26 to i32
  %28 = icmp ne i32 %27, 0
  br i1 %28, label %29, label %59

29:                                               ; preds = %20
  %30 = load ptr, ptr %5, align 8, !tbaa !9
  %31 = getelementptr inbounds nuw %struct.Curl_easy, ptr %30, i32 0, i32 19
  %32 = getelementptr inbounds nuw %struct.UrlState, ptr %31, i32 0, i32 47
  %33 = load ptr, ptr %32, align 8, !tbaa !49
  %34 = icmp ne ptr %33, null
  br i1 %34, label %35, label %43

35:                                               ; preds = %29
  %36 = load ptr, ptr %5, align 8, !tbaa !9
  %37 = getelementptr inbounds nuw %struct.Curl_easy, ptr %36, i32 0, i32 19
  %38 = getelementptr inbounds nuw %struct.UrlState, ptr %37, i32 0, i32 47
  %39 = load ptr, ptr %38, align 8, !tbaa !49
  %40 = getelementptr inbounds nuw %struct.curl_trc_feat, ptr %39, i32 0, i32 1
  %41 = load i32, ptr %40, align 8, !tbaa !111
  %42 = icmp sge i32 %41, 1
  br i1 %42, label %43, label %59

43:                                               ; preds = %35, %29
  %44 = load ptr, ptr %4, align 8, !tbaa !4
  %45 = icmp ne ptr %44, null
  br i1 %45, label %46, label %59

46:                                               ; preds = %43
  %47 = load ptr, ptr %4, align 8, !tbaa !4
  %48 = getelementptr inbounds nuw %struct.Curl_cfilter, ptr %47, i32 0, i32 0
  %49 = load ptr, ptr %48, align 8, !tbaa !43
  %50 = getelementptr inbounds nuw %struct.Curl_cftype, ptr %49, i32 0, i32 2
  %51 = load i32, ptr %50, align 4, !tbaa !113
  %52 = icmp sge i32 %51, 1
  br i1 %52, label %53, label %59

53:                                               ; preds = %46
  %54 = load ptr, ptr %5, align 8, !tbaa !9
  %55 = load ptr, ptr %4, align 8, !tbaa !4
  %56 = load ptr, ptr %6, align 8, !tbaa !16
  %57 = getelementptr inbounds nuw %struct.cf_h2_proxy_ctx, ptr %56, i32 0, i32 2
  %58 = call i64 @Curl_bufq_len(ptr noundef %57)
  call void (ptr, ptr, ptr, ...) @Curl_trc_cf_infof(ptr noundef %54, ptr noundef %55, ptr noundef @.str.46, i64 noundef %58)
  br label %59

59:                                               ; preds = %53, %46, %43, %35, %20, %17
  br label %60

60:                                               ; preds = %59
  br label %61

61:                                               ; preds = %60
  %62 = load ptr, ptr %4, align 8, !tbaa !4
  %63 = load ptr, ptr %5, align 8, !tbaa !9
  %64 = call i32 @proxy_h2_process_pending_input(ptr noundef %62, ptr noundef %63, ptr noundef %7)
  %65 = icmp slt i32 %64, 0
  br i1 %65, label %66, label %68

66:                                               ; preds = %61
  %67 = load i32, ptr %7, align 4, !tbaa !22
  store i32 %67, ptr %3, align 4
  store i32 1, ptr %9, align 4
  br label %193

68:                                               ; preds = %61
  br label %69

69:                                               ; preds = %68, %2
  br label %70

70:                                               ; preds = %176, %69
  %71 = load ptr, ptr %6, align 8, !tbaa !16
  %72 = getelementptr inbounds nuw %struct.cf_h2_proxy_ctx, ptr %71, i32 0, i32 7
  %73 = load i8, ptr %72, align 8
  %74 = and i8 %73, 1
  %75 = zext i8 %74 to i32
  %76 = icmp ne i32 %75, 0
  br i1 %76, label %96, label %77

77:                                               ; preds = %70
  %78 = load ptr, ptr %6, align 8, !tbaa !16
  %79 = getelementptr inbounds nuw %struct.cf_h2_proxy_ctx, ptr %78, i32 0, i32 4
  %80 = getelementptr inbounds nuw %struct.tunnel_stream, ptr %79, i32 0, i32 7
  %81 = load i8, ptr %80, align 4
  %82 = lshr i8 %81, 1
  %83 = and i8 %82, 1
  %84 = zext i8 %83 to i32
  %85 = icmp ne i32 %84, 0
  br i1 %85, label %96, label %86

86:                                               ; preds = %77
  %87 = load ptr, ptr %6, align 8, !tbaa !16
  %88 = getelementptr inbounds nuw %struct.cf_h2_proxy_ctx, ptr %87, i32 0, i32 2
  %89 = call zeroext i1 @Curl_bufq_is_empty(ptr noundef %88)
  br i1 %89, label %90, label %96

90:                                               ; preds = %86
  %91 = load ptr, ptr %6, align 8, !tbaa !16
  %92 = getelementptr inbounds nuw %struct.cf_h2_proxy_ctx, ptr %91, i32 0, i32 4
  %93 = getelementptr inbounds nuw %struct.tunnel_stream, ptr %92, i32 0, i32 1
  %94 = call zeroext i1 @Curl_bufq_is_full(ptr noundef %93)
  %95 = xor i1 %94, true
  br label %96

96:                                               ; preds = %90, %86, %77, %70
  %97 = phi i1 [ false, %86 ], [ false, %77 ], [ false, %70 ], [ %95, %90 ]
  br i1 %97, label %98, label %177

98:                                               ; preds = %96
  %99 = load ptr, ptr %6, align 8, !tbaa !16
  %100 = getelementptr inbounds nuw %struct.cf_h2_proxy_ctx, ptr %99, i32 0, i32 2
  %101 = load ptr, ptr %4, align 8, !tbaa !4
  %102 = call i64 @Curl_bufq_slurp(ptr noundef %100, ptr noundef @proxy_nw_in_reader, ptr noundef %101, ptr noundef %7)
  store i64 %102, ptr %8, align 8, !tbaa !41
  br label %103

103:                                              ; preds = %98
  %104 = load ptr, ptr %5, align 8, !tbaa !9
  %105 = icmp ne ptr %104, null
  br i1 %105, label %106, label %147

106:                                              ; preds = %103
  %107 = load ptr, ptr %5, align 8, !tbaa !9
  %108 = getelementptr inbounds nuw %struct.Curl_easy, ptr %107, i32 0, i32 15
  %109 = getelementptr inbounds nuw %struct.UserDefined, ptr %108, i32 0, i32 124
  %110 = load i64, ptr %109, align 2
  %111 = lshr i64 %110, 27
  %112 = and i64 %111, 1
  %113 = trunc i64 %112 to i32
  %114 = icmp ne i32 %113, 0
  br i1 %114, label %115, label %147

115:                                              ; preds = %106
  %116 = load ptr, ptr %5, align 8, !tbaa !9
  %117 = getelementptr inbounds nuw %struct.Curl_easy, ptr %116, i32 0, i32 19
  %118 = getelementptr inbounds nuw %struct.UrlState, ptr %117, i32 0, i32 47
  %119 = load ptr, ptr %118, align 8, !tbaa !49
  %120 = icmp ne ptr %119, null
  br i1 %120, label %121, label %129

121:                                              ; preds = %115
  %122 = load ptr, ptr %5, align 8, !tbaa !9
  %123 = getelementptr inbounds nuw %struct.Curl_easy, ptr %122, i32 0, i32 19
  %124 = getelementptr inbounds nuw %struct.UrlState, ptr %123, i32 0, i32 47
  %125 = load ptr, ptr %124, align 8, !tbaa !49
  %126 = getelementptr inbounds nuw %struct.curl_trc_feat, ptr %125, i32 0, i32 1
  %127 = load i32, ptr %126, align 8, !tbaa !111
  %128 = icmp sge i32 %127, 1
  br i1 %128, label %129, label %147

129:                                              ; preds = %121, %115
  %130 = load ptr, ptr %4, align 8, !tbaa !4
  %131 = icmp ne ptr %130, null
  br i1 %131, label %132, label %147

132:                                              ; preds = %129
  %133 = load ptr, ptr %4, align 8, !tbaa !4
  %134 = getelementptr inbounds nuw %struct.Curl_cfilter, ptr %133, i32 0, i32 0
  %135 = load ptr, ptr %134, align 8, !tbaa !43
  %136 = getelementptr inbounds nuw %struct.Curl_cftype, ptr %135, i32 0, i32 2
  %137 = load i32, ptr %136, align 4, !tbaa !113
  %138 = icmp sge i32 %137, 1
  br i1 %138, label %139, label %147

139:                                              ; preds = %132
  %140 = load ptr, ptr %5, align 8, !tbaa !9
  %141 = load ptr, ptr %4, align 8, !tbaa !4
  %142 = load ptr, ptr %6, align 8, !tbaa !16
  %143 = getelementptr inbounds nuw %struct.cf_h2_proxy_ctx, ptr %142, i32 0, i32 2
  %144 = call i64 @Curl_bufq_len(ptr noundef %143)
  %145 = load i64, ptr %8, align 8, !tbaa !41
  %146 = load i32, ptr %7, align 4, !tbaa !22
  call void (ptr, ptr, ptr, ...) @Curl_trc_cf_infof(ptr noundef %140, ptr noundef %141, ptr noundef @.str.47, i64 noundef %144, i64 noundef %145, i32 noundef %146)
  br label %147

147:                                              ; preds = %139, %132, %129, %121, %106, %103
  br label %148

148:                                              ; preds = %147
  br label %149

149:                                              ; preds = %148
  %150 = load i64, ptr %8, align 8, !tbaa !41
  %151 = icmp slt i64 %150, 0
  br i1 %151, label %152, label %159

152:                                              ; preds = %149
  %153 = load i32, ptr %7, align 4, !tbaa !22
  %154 = icmp ne i32 %153, 81
  br i1 %154, label %155, label %158

155:                                              ; preds = %152
  %156 = load ptr, ptr %5, align 8, !tbaa !9
  call void (ptr, ptr, ...) @Curl_failf(ptr noundef %156, ptr noundef @.str.48)
  %157 = load i32, ptr %7, align 4, !tbaa !22
  store i32 %157, ptr %3, align 4
  store i32 1, ptr %9, align 4
  br label %193

158:                                              ; preds = %152
  br label %177

159:                                              ; preds = %149
  %160 = load i64, ptr %8, align 8, !tbaa !41
  %161 = icmp eq i64 %160, 0
  br i1 %161, label %162, label %168

162:                                              ; preds = %159
  %163 = load ptr, ptr %6, align 8, !tbaa !16
  %164 = getelementptr inbounds nuw %struct.cf_h2_proxy_ctx, ptr %163, i32 0, i32 7
  %165 = load i8, ptr %164, align 8
  %166 = and i8 %165, -2
  %167 = or i8 %166, 1
  store i8 %167, ptr %164, align 8
  br label %177

168:                                              ; preds = %159
  br label %169

169:                                              ; preds = %168
  %170 = load ptr, ptr %4, align 8, !tbaa !4
  %171 = load ptr, ptr %5, align 8, !tbaa !9
  %172 = call i32 @proxy_h2_process_pending_input(ptr noundef %170, ptr noundef %171, ptr noundef %7)
  %173 = icmp ne i32 %172, 0
  br i1 %173, label %174, label %176

174:                                              ; preds = %169
  %175 = load i32, ptr %7, align 4, !tbaa !22
  store i32 %175, ptr %3, align 4
  store i32 1, ptr %9, align 4
  br label %193

176:                                              ; preds = %169
  br label %70, !llvm.loop !150

177:                                              ; preds = %162, %158, %96
  %178 = load ptr, ptr %6, align 8, !tbaa !16
  %179 = getelementptr inbounds nuw %struct.cf_h2_proxy_ctx, ptr %178, i32 0, i32 7
  %180 = load i8, ptr %179, align 8
  %181 = and i8 %180, 1
  %182 = zext i8 %181 to i32
  %183 = icmp ne i32 %182, 0
  br i1 %183, label %184, label %192

184:                                              ; preds = %177
  %185 = load ptr, ptr %6, align 8, !tbaa !16
  %186 = getelementptr inbounds nuw %struct.cf_h2_proxy_ctx, ptr %185, i32 0, i32 2
  %187 = call zeroext i1 @Curl_bufq_is_empty(ptr noundef %186)
  br i1 %187, label %188, label %192

188:                                              ; preds = %184
  %189 = load ptr, ptr %4, align 8, !tbaa !4
  %190 = getelementptr inbounds nuw %struct.Curl_cfilter, ptr %189, i32 0, i32 3
  %191 = load ptr, ptr %190, align 8, !tbaa !151
  call void @Curl_conncontrol(ptr noundef %191, i32 noundef 1)
  br label %192

192:                                              ; preds = %188, %184, %177
  store i32 0, ptr %3, align 4
  store i32 1, ptr %9, align 4
  br label %193

193:                                              ; preds = %192, %174, %155, %66
  call void @llvm.lifetime.end.p0(i64 8, ptr %8) #6
  call void @llvm.lifetime.end.p0(i64 4, ptr %7) #6
  call void @llvm.lifetime.end.p0(i64 8, ptr %6) #6
  %194 = load i32, ptr %3, align 4
  ret i32 %194
}