; Function Attrs: nounwind uwtable
define internal fastcc i32 @proxy_h2_progress_ingress(ptr noundef %0, ptr noundef %1) unnamed_addr #0 {
  %3 = alloca i32, align 4
  %4 = getelementptr inbounds nuw i8, ptr %0, i64 16
  %5 = load ptr, ptr %4, align 8, !tbaa !4
  call void @llvm.lifetime.start.p0(i64 4, ptr nonnull %3) #7
  store i32 0, ptr %3, align 4, !tbaa !40
  %6 = getelementptr inbounds nuw i8, ptr %5, i64 16
  %7 = tail call zeroext i1 @Curl_bufq_is_empty(ptr noundef nonnull %6) #7
  br i1 %7, label %32, label %8

8:                                                ; preds = %2
  %.not = icmp eq ptr %1, null
  br i1 %.not, label %27, label %9

9:                                                ; preds = %8
  %10 = getelementptr inbounds nuw i8, ptr %1, i64 2562
  %11 = load i64, ptr %10, align 2
  %12 = and i64 %11, 134217728
  %.not46 = icmp eq i64 %12, 0
  br i1 %.not46, label %27, label %13

13:                                               ; preds = %9
  %14 = getelementptr inbounds nuw i8, ptr %1, i64 4712
  %15 = load ptr, ptr %14, align 8, !tbaa !108
  %.not47 = icmp eq ptr %15, null
  br i1 %.not47, label %20, label %16

16:                                               ; preds = %13
  %17 = getelementptr inbounds nuw i8, ptr %15, i64 8
  %18 = load i32, ptr %17, align 8, !tbaa !109
  %19 = icmp sgt i32 %18, 0
  br i1 %19, label %20, label %27

20:                                               ; preds = %13, %16
  %21 = load ptr, ptr %0, align 8, !tbaa !111
  %22 = getelementptr inbounds nuw i8, ptr %21, i64 12
  %23 = load i32, ptr %22, align 4, !tbaa !112
  %24 = icmp sgt i32 %23, 0
  br i1 %24, label %25, label %27

25:                                               ; preds = %20
  %26 = tail call i64 @Curl_bufq_len(ptr noundef nonnull %6) #7
  tail call void (ptr, ptr, ptr, ...) @Curl_trc_cf_infof(ptr noundef nonnull %1, ptr noundef nonnull %0, ptr noundef nonnull @.str.46, i64 noundef %26) #7
  br label %27

27:                                               ; preds = %25, %20, %16, %9, %8
  %28 = call fastcc i32 @proxy_h2_process_pending_input(ptr noundef nonnull %0, ptr noundef %1, ptr noundef %3)
  %29 = icmp slt i32 %28, 0
  br i1 %29, label %30, label %32

30:                                               ; preds = %27
  %31 = load i32, ptr %3, align 4, !tbaa !40
  br label %100

32:                                               ; preds = %27, %2
  %33 = getelementptr inbounds nuw i8, ptr %5, i64 312
  %34 = getelementptr inbounds nuw i8, ptr %5, i64 300
  %35 = getelementptr inbounds nuw i8, ptr %5, i64 152
  %.not50 = icmp eq ptr %1, null
  %36 = getelementptr inbounds nuw i8, ptr %1, i64 2562
  %37 = getelementptr inbounds nuw i8, ptr %1, i64 4712
  br i1 %.not50, label %.split.us, label %.split

.split.us:                                        ; preds = %32, %52
  %38 = load i8, ptr %33, align 8
  %39 = and i8 %38, 1
  %.not48.us = icmp eq i8 %39, 0
  br i1 %.not48.us, label %40, label %.critedge

40:                                               ; preds = %.split.us
  %41 = load i8, ptr %34, align 4
  %42 = and i8 %41, 2
  %.not49.us = icmp eq i8 %42, 0
  br i1 %.not49.us, label %43, label %.critedge

43:                                               ; preds = %40
  %44 = call zeroext i1 @Curl_bufq_is_empty(ptr noundef nonnull %6) #7
  br i1 %44, label %45, label %.critedge

45:                                               ; preds = %43
  %46 = call zeroext i1 @Curl_bufq_is_full(ptr noundef nonnull %35) #7
  br i1 %46, label %.critedge, label %47

47:                                               ; preds = %45
  %48 = call i64 @Curl_bufq_slurp(ptr noundef nonnull %6, ptr noundef nonnull @proxy_nw_in_reader, ptr noundef %0, ptr noundef nonnull %3) #7
  %49 = icmp slt i64 %48, 0
  br i1 %49, label %.split60.us, label %50

50:                                               ; preds = %47
  %51 = icmp eq i64 %48, 0
  br i1 %51, label %.split62.us, label %52

52:                                               ; preds = %50
  %53 = call fastcc i32 @proxy_h2_process_pending_input(ptr noundef %0, ptr noundef null, ptr noundef %3)
  %.not53.us = icmp eq i32 %53, 0
  br i1 %.not53.us, label %.split.us, label %.split64.us, !llvm.loop !147

.split:                                           ; preds = %32, %90
  %54 = load i8, ptr %33, align 8
  %55 = and i8 %54, 1
  %.not48 = icmp eq i8 %55, 0
  br i1 %.not48, label %56, label %.critedge

56:                                               ; preds = %.split
  %57 = load i8, ptr %34, align 4
  %58 = and i8 %57, 2
  %.not49 = icmp eq i8 %58, 0
  br i1 %.not49, label %59, label %.critedge

59:                                               ; preds = %56
  %60 = call zeroext i1 @Curl_bufq_is_empty(ptr noundef nonnull %6) #7
  br i1 %60, label %61, label %.critedge

61:                                               ; preds = %59
  %62 = call zeroext i1 @Curl_bufq_is_full(ptr noundef nonnull %35) #7
  br i1 %62, label %.critedge, label %63

63:                                               ; preds = %61
  %64 = call i64 @Curl_bufq_slurp(ptr noundef nonnull %6, ptr noundef nonnull @proxy_nw_in_reader, ptr noundef %0, ptr noundef nonnull %3) #7
  %65 = load i64, ptr %36, align 2
  %66 = and i64 %65, 134217728
  %.not51 = icmp eq i64 %66, 0
  br i1 %.not51, label %81, label %67

67:                                               ; preds = %63
  %68 = load ptr, ptr %37, align 8, !tbaa !108
  %.not52 = icmp eq ptr %68, null
  br i1 %.not52, label %73, label %69

69:                                               ; preds = %67
  %70 = getelementptr inbounds nuw i8, ptr %68, i64 8
  %71 = load i32, ptr %70, align 8, !tbaa !109
  %72 = icmp sgt i32 %71, 0
  br i1 %72, label %73, label %81

73:                                               ; preds = %67, %69
  %74 = load ptr, ptr %0, align 8, !tbaa !111
  %75 = getelementptr inbounds nuw i8, ptr %74, i64 12
  %76 = load i32, ptr %75, align 4, !tbaa !112
  %77 = icmp sgt i32 %76, 0
  br i1 %77, label %78, label %81

78:                                               ; preds = %73
  %79 = call i64 @Curl_bufq_len(ptr noundef nonnull %6) #7
  %80 = load i32, ptr %3, align 4, !tbaa !40
  call void (ptr, ptr, ptr, ...) @Curl_trc_cf_infof(ptr noundef nonnull %1, ptr noundef nonnull %0, ptr noundef nonnull @.str.47, i64 noundef %79, i64 noundef %64, i32 noundef %80) #7
  br label %81

81:                                               ; preds = %78, %73, %69, %63
  %82 = icmp slt i64 %64, 0
  br i1 %82, label %.split60.us, label %86

.split60.us:                                      ; preds = %81, %47
  %83 = load i32, ptr %3, align 4, !tbaa !40
  %.not54 = icmp eq i32 %83, 81
  br i1 %.not54, label %.critedge, label %84

84:                                               ; preds = %.split60.us
  call void (ptr, ptr, ...) @Curl_failf(ptr noundef %1, ptr noundef nonnull @.str.48) #7
  %85 = load i32, ptr %3, align 4, !tbaa !40
  br label %100

86:                                               ; preds = %81
  %87 = icmp eq i64 %64, 0
  br i1 %87, label %.split62.us, label %90

.split62.us:                                      ; preds = %86, %50
  %88 = load i8, ptr %33, align 8
  %89 = or i8 %88, 1
  store i8 %89, ptr %33, align 8
  br label %.critedge

90:                                               ; preds = %86
  %91 = call fastcc i32 @proxy_h2_process_pending_input(ptr noundef %0, ptr noundef nonnull %1, ptr noundef %3)
  %.not53 = icmp eq i32 %91, 0
  br i1 %.not53, label %.split, label %.split64.us, !llvm.loop !147

.split64.us:                                      ; preds = %90, %52
  %92 = load i32, ptr %3, align 4, !tbaa !40
  br label %100

.critedge:                                        ; preds = %61, %.split, %56, %59, %45, %43, %40, %.split.us, %.split60.us, %.split62.us
  %93 = load i8, ptr %33, align 8
  %94 = and i8 %93, 1
  %.not55 = icmp eq i8 %94, 0
  br i1 %.not55, label %100, label %95

95:                                               ; preds = %.critedge
  %96 = call zeroext i1 @Curl_bufq_is_empty(ptr noundef nonnull %6) #7
  br i1 %96, label %97, label %100

97:                                               ; preds = %95
  %98 = getelementptr inbounds nuw i8, ptr %0, i64 24
  %99 = load ptr, ptr %98, align 8, !tbaa !138
  call void @Curl_conncontrol(ptr noundef %99, i32 noundef 1) #7
  br label %100

100:                                              ; preds = %.critedge, %95, %97, %.split64.us, %84, %30
  %.0 = phi i32 [ %85, %84 ], [ %92, %.split64.us ], [ %31, %30 ], [ 0, %97 ], [ 0, %95 ], [ 0, %.critedge ]
  call void @llvm.lifetime.end.p0(i64 4, ptr nonnull %3) #7
  ret i32 %.0
}